target datalayout = "e-m:e-p270:32:32-p271:32:32-p272:64:64-i64:64-i128:128-f80:128-n8:16:32:64-S128"
target triple = "x86_64-pc-linux-gnu"

%struct.redisServer = type { i32, i64, ptr, ptr, ptr, i32, i32, i32, i32, i32, ptr, ptr, ptr, ptr, ptr, i32, i32, i32, i32, i64, i32, i32, i32, i32, ptr, i32, i32, [41 x i8], i32, i64, i32, i32, i32, ptr, ptr, i32, i32, i64, ptr, ptr, ptr, ptr, [2 x i32], i32, i32, i32, i32, i32, i32, [16 x ptr], i32, ptr, ptr, i32, [8 x %struct.connListener], i32, %struct.connListener, ptr, ptr, ptr, ptr, ptr, ptr, ptr, ptr, ptr, ptr, i32, ptr, i32, ptr, [3 x %struct.pause_event], [256 x i8], ptr, i64, i32, i32, [128 x i32], i32, i32, i64, i32, i32, i32, i32, i32, i64, i64, i64, i64, i64, i64, i64, i64, i64, i64, double, i64, i64, i64, i64, i64, i64, i64, i64, i64, i64, i64, i64, i64, i64, i64, i64, i64, i64, i64, i64, i64, double, i64, i64, i64, i64, i64, ptr, i64, i64, i64, %struct.malloc_stats, i64, i64, i64, i64, i64, i64, i64, i64, i64, i64, i64, i64, double, [4 x i64], i64, i64, i64, i64, [128 x i64], [128 x i64], i64, i64, [7 x %struct.anon], i64, i64, i64, i64, i64, i64, [4 x %struct.durationStats], i32, i32, i32, i32, i32, i32, i32, i32, i32, i32, i32, i32, i64, i32, i32, i32, i32, i64, i64, i32, i32, i32, i32, i32, ptr, [3 x %struct.clientBufferLimitsConfig], i32, i32, i32, ptr, i32, i32, i32, i32, i32, i32, ptr, ptr, i32, i32, i64, i64, i64, i64, i64, i32, i32, ptr, i32, i32, i64, i64, i64, i64, i64, i32, i32, i64, i32, i32, i32, i32, i32, i32, i32, i32, ptr, i32, i64, i64, i64, i64, i32, ptr, i32, ptr, i32, i32, i32, i64, i64, i64, i64, i32, i32, i32, i32, i32, i32, ptr, i32, i32, ptr, i32, i32, i32, [2 x i32], i32, %struct.redisOpArray, i32, ptr, i32, ptr, i32, i32, i32, i32, i32, i32, i32, [41 x i8], [41 x i8], i64, i64, i64, i64, i32, i32, ptr, i64, i64, %struct.replDataBuf, i64, i64, i32, i32, i32, i32, i32, i32, i32, i32, i32, i64, ptr, i64, ptr, ptr, ptr, i32, i32, ptr, ptr, i32, i32, i32, i64, i64, i64, i64, ptr, ptr, i32, ptr, i64, i32, i32, i32, i64, i32, i32, i32, i32, ptr, i32, i32, [41 x i8], i64, i32, ptr, i32, i32, i64, i64, i32, i32, i32, i32, i32, i64, [3 x i32], i32, i32, i32, [10 x i32], ptr, ptr, i32, i64, ptr, ptr, i32, i32, i32, i32, i64, i64, i64, i64, i64, i64, i64, i64, i64, i64, i32, i32, i64, i64, i32, i64, i64, i64, i64, i64, ptr, ptr, i32, ptr, i32, i32, i32, i32, i64, i64, ptr, ptr, i32, i32, i32, i32, i32, ptr, ptr, ptr, i32, i32, i32, i32, i32, i32, i32, i64, i32, i32, i64, i32, i32, i32, i32, i32, i32, i32, i64, ptr, ptr, i64, ptr, i32, %struct.aclInfo, i32, i64, i32, i32, i32, %struct.redisTLSContextConfig, ptr, ptr, ptr, ptr, ptr, i64, i32, ptr, i32, i32, i32, i64, i32, ptr }
%struct.connListener = type { [16 x i32], i32, ptr, i32, i32, ptr, ptr }
%struct.pause_event = type { i32, i64 }
%struct.malloc_stats = type { i64, i64, i64, i64, i64, i64, i64, i64, i64, i64, i64 }
%struct.anon = type { i64, i64, [16 x i64], i32 }
%struct.durationStats = type { i64, i64, i64 }
%struct.clientBufferLimitsConfig = type { i64, i64, i64 }
%struct.redisOpArray = type { ptr, i32, i32 }
%struct.replDataBuf = type { ptr, i64, i64, i64, i64 }
%struct.aclInfo = type { i64, i64, i64, i64 }
%struct.redisTLSContextConfig = type { ptr, ptr, ptr, ptr, ptr, ptr, ptr, ptr, ptr, ptr, ptr, ptr, i32, i32, i32, i32 }
%struct.list = type { ptr, ptr, ptr, ptr, ptr, i64 }
%struct.listNode = type { ptr, ptr, ptr }
%struct.redisDb = type { ptr, ptr, ptr, ptr, ptr, ptr, ptr, i32, i64, i64, ptr }

@server = external global %struct.redisServer, align 8
@.str = private unnamed_addr constant [9 x i8] c"defrag.c\00", align 1
@defrag_later_cursor = internal global i64 0, align 8
@defrag_later_current_key = internal global ptr null, align 8
@.str.26 = private unnamed_addr constant [40 x i8] c"defrag_later_current_key == head->value\00", align 1

; Function Attrs: nounwind uwtable
define dso_local i32 @defragLaterStep(ptr noundef %0, i32 noundef %1, i64 noundef %2) #0 {
  %4 = alloca i32, align 4
  %5 = alloca ptr, align 8
  %6 = alloca i32, align 4
  %7 = alloca i64, align 8
  %8 = alloca i32, align 4
  %9 = alloca i64, align 8
  %10 = alloca i64, align 8
  %11 = alloca i64, align 8
  %12 = alloca ptr, align 8
  %13 = alloca i32, align 4
  %14 = alloca ptr, align 8
  %15 = alloca i32, align 4
  store ptr %0, ptr %5, align 8, !tbaa !108
  store i32 %1, ptr %6, align 4, !tbaa !44
  store i64 %2, ptr %7, align 8, !tbaa !113
  call void @llvm.lifetime.start.p0(i64 4, ptr %8) #10
  store i32 0, ptr %8, align 4, !tbaa !44
  call void @llvm.lifetime.start.p0(i64 8, ptr %9) #10
  %16 = load i64, ptr getelementptr inbounds nuw (%struct.redisServer, ptr @server, i32 0, i32 106), align 8, !tbaa !40
  store i64 %16, ptr %9, align 8, !tbaa !113
  call void @llvm.lifetime.start.p0(i64 8, ptr %10) #10
  %17 = load i64, ptr getelementptr inbounds nuw (%struct.redisServer, ptr @server, i32 0, i32 110), align 8, !tbaa !114
  store i64 %17, ptr %10, align 8, !tbaa !113
  call void @llvm.lifetime.start.p0(i64 8, ptr %11) #10
  br label %18

18:                                               ; preds = %141, %3
  %19 = load i64, ptr @defrag_later_cursor, align 8, !tbaa !39
  %20 = icmp ne i64 %19, 0
  br i1 %20, label %65, label %21

21:                                               ; preds = %18
  call void @llvm.lifetime.start.p0(i64 8, ptr %12) #10
  %22 = load ptr, ptr %5, align 8, !tbaa !108
  %23 = getelementptr inbounds nuw %struct.redisDb, ptr %22, i32 0, i32 10
  %24 = load ptr, ptr %23, align 8, !tbaa !109
  %25 = getelementptr inbounds nuw %struct.list, ptr %24, i32 0, i32 0
  %26 = load ptr, ptr %25, align 8, !tbaa !88
  store ptr %26, ptr %12, align 8, !tbaa !90
  %27 = load ptr, ptr @defrag_later_current_key, align 8, !tbaa !41
  %28 = icmp ne ptr %27, null
  br i1 %28, label %29, label %49

29:                                               ; preds = %21
  %30 = load ptr, ptr @defrag_later_current_key, align 8, !tbaa !41
  %31 = load ptr, ptr %12, align 8, !tbaa !90
  %32 = getelementptr inbounds nuw %struct.listNode, ptr %31, i32 0, i32 2
  %33 = load ptr, ptr %32, align 8, !tbaa !95
  %34 = icmp eq ptr %30, %33
  %35 = xor i1 %34, true
  %36 = xor i1 %35, true
  %37 = zext i1 %36 to i32
  %38 = sext i32 %37 to i64
  %39 = call i64 @llvm.expect.i64(i64 %38, i64 1)
  %40 = icmp ne i64 %39, 0
  br i1 %40, label %41, label %42

41:                                               ; preds = %29
  br label %44

42:                                               ; preds = %29
  call void @_serverAssert(ptr noundef @.str.26, ptr noundef @.str, i32 noundef 975)
  call void @abort() #11
  unreachable

43:                                               ; No predecessors!
  br label %44

44:                                               ; preds = %43, %41
  %45 = load ptr, ptr %5, align 8, !tbaa !108
  %46 = getelementptr inbounds nuw %struct.redisDb, ptr %45, i32 0, i32 10
  %47 = load ptr, ptr %46, align 8, !tbaa !109
  %48 = load ptr, ptr %12, align 8, !tbaa !90
  call void @listDelNode(ptr noundef %47, ptr noundef %48)
  store i64 0, ptr @defrag_later_cursor, align 8, !tbaa !39
  store ptr null, ptr @defrag_later_current_key, align 8, !tbaa !41
  br label %49

49:                                               ; preds = %44, %21
  %50 = load ptr, ptr %5, align 8, !tbaa !108
  %51 = getelementptr inbounds nuw %struct.redisDb, ptr %50, i32 0, i32 10
  %52 = load ptr, ptr %51, align 8, !tbaa !109
  %53 = getelementptr inbounds nuw %struct.list, ptr %52, i32 0, i32 0
  %54 = load ptr, ptr %53, align 8, !tbaa !88
  store ptr %54, ptr %12, align 8, !tbaa !90
  %55 = load ptr, ptr %12, align 8, !tbaa !90
  %56 = icmp ne ptr %55, null
  br i1 %56, label %58, label %57

57:                                               ; preds = %49
  store i32 0, ptr %4, align 4
  store i32 1, ptr %13, align 4
  br label %62

58:                                               ; preds = %49
  %59 = load ptr, ptr %12, align 8, !tbaa !90
  %60 = getelementptr inbounds nuw %struct.listNode, ptr %59, i32 0, i32 2
  %61 = load ptr, ptr %60, align 8, !tbaa !95
  store ptr %61, ptr @defrag_later_current_key, align 8, !tbaa !41
  store i64 0, ptr @defrag_later_cursor, align 8, !tbaa !39
  store i32 0, ptr %13, align 4
  br label %62

62:                                               ; preds = %58, %57
  call void @llvm.lifetime.end.p0(i64 8, ptr %12) #10
  %63 = load i32, ptr %13, align 4
  switch i32 %63, label %143 [
    i32 0, label %64
  ]

64:                                               ; preds = %62
  br label %65

65:                                               ; preds = %64, %18
  call void @llvm.lifetime.start.p0(i64 8, ptr %14) #10
  %66 = load ptr, ptr %5, align 8, !tbaa !108
  %67 = getelementptr inbounds nuw %struct.redisDb, ptr %66, i32 0, i32 0
  %68 = load ptr, ptr %67, align 8, !tbaa !169
  %69 = load i32, ptr %6, align 4, !tbaa !44
  %70 = load ptr, ptr @defrag_later_current_key, align 8, !tbaa !41
  %71 = call ptr @kvstoreDictFind(ptr noundef %68, i32 noundef %69, ptr noundef %70)
  store ptr %71, ptr %14, align 8, !tbaa !75
  %72 = load i64, ptr getelementptr inbounds nuw (%struct.redisServer, ptr @server, i32 0, i32 106), align 8, !tbaa !40
  store i64 %72, ptr %11, align 8, !tbaa !113
  br label %73

73:                                               ; preds = %124, %65
  call void @llvm.lifetime.start.p0(i64 4, ptr %15) #10
  store i32 0, ptr %15, align 4, !tbaa !44
  %74 = load ptr, ptr %14, align 8, !tbaa !75
  %75 = load i64, ptr %7, align 8, !tbaa !113
  %76 = load ptr, ptr %5, align 8, !tbaa !108
  %77 = getelementptr inbounds nuw %struct.redisDb, ptr %76, i32 0, i32 7
  %78 = load i32, ptr %77, align 8, !tbaa !163
  %79 = call i32 @defragLaterItem(ptr noundef %74, ptr noundef @defrag_later_cursor, i64 noundef %75, i32 noundef %78)
  %80 = icmp ne i32 %79, 0
  br i1 %80, label %81, label %82

81:                                               ; preds = %73
  store i32 1, ptr %15, align 4, !tbaa !44
  br label %82

82:                                               ; preds = %81, %73
  %83 = load i32, ptr %15, align 4, !tbaa !44
  %84 = icmp ne i32 %83, 0
  br i1 %84, label %99, label %85

85:                                               ; preds = %82
  %86 = load i32, ptr %8, align 4, !tbaa !44
  %87 = add i32 %86, 1
  store i32 %87, ptr %8, align 4, !tbaa !44
  %88 = icmp ugt i32 %87, 16
  br i1 %88, label %99, label %89

89:                                               ; preds = %85
  %90 = load i64, ptr getelementptr inbounds nuw (%struct.redisServer, ptr @server, i32 0, i32 106), align 8, !tbaa !40
  %91 = load i64, ptr %9, align 8, !tbaa !113
  %92 = sub i64 %90, %91
  %93 = icmp ugt i64 %92, 512
  br i1 %93, label %99, label %94

94:                                               ; preds = %89
  %95 = load i64, ptr getelementptr inbounds nuw (%struct.redisServer, ptr @server, i32 0, i32 110), align 8, !tbaa !114
  %96 = load i64, ptr %10, align 8, !tbaa !113
  %97 = sub i64 %95, %96
  %98 = icmp ugt i64 %97, 64
  br i1 %98, label %99, label %120

99:                                               ; preds = %94, %89, %85, %82
  %100 = load i32, ptr %15, align 4, !tbaa !44
  %101 = icmp ne i32 %100, 0
  br i1 %101, label %106, label %102

102:                                              ; preds = %99
  %103 = call i64 @ustime()
  %104 = load i64, ptr %7, align 8, !tbaa !113
  %105 = icmp sgt i64 %103, %104
  br i1 %105, label %106, label %117

106:                                              ; preds = %102, %99
  %107 = load i64, ptr %11, align 8, !tbaa !113
  %108 = load i64, ptr getelementptr inbounds nuw (%struct.redisServer, ptr @server, i32 0, i32 106), align 8, !tbaa !40
  %109 = icmp ne i64 %107, %108
  br i1 %109, label %110, label %113

110:                                              ; preds = %106
  %111 = load i64, ptr getelementptr inbounds nuw (%struct.redisServer, ptr @server, i32 0, i32 108), align 8, !tbaa !177
  %112 = add nsw i64 %111, 1
  store i64 %112, ptr getelementptr inbounds nuw (%struct.redisServer, ptr @server, i32 0, i32 108), align 8, !tbaa !177
  br label %116

113:                                              ; preds = %106
  %114 = load i64, ptr getelementptr inbounds nuw (%struct.redisServer, ptr @server, i32 0, i32 109), align 8, !tbaa !178
  %115 = add nsw i64 %114, 1
  store i64 %115, ptr getelementptr inbounds nuw (%struct.redisServer, ptr @server, i32 0, i32 109), align 8, !tbaa !178
  br label %116

116:                                              ; preds = %113, %110
  store i32 1, ptr %4, align 4
  store i32 1, ptr %13, align 4
  br label %121

117:                                              ; preds = %102
  store i32 0, ptr %8, align 4, !tbaa !44
  %118 = load i64, ptr getelementptr inbounds nuw (%struct.redisServer, ptr @server, i32 0, i32 106), align 8, !tbaa !40
  store i64 %118, ptr %9, align 8, !tbaa !113
  %119 = load i64, ptr getelementptr inbounds nuw (%struct.redisServer, ptr @server, i32 0, i32 110), align 8, !tbaa !114
  store i64 %119, ptr %10, align 8, !tbaa !113
  br label %120

120:                                              ; preds = %117, %94
  store i32 0, ptr %13, align 4
  br label %121

121:                                              ; preds = %120, %116
  call void @llvm.lifetime.end.p0(i64 4, ptr %15) #10
  %122 = load i32, ptr %13, align 4
  switch i32 %122, label %138 [
    i32 0, label %123
  ]

123:                                              ; preds = %121
  br label %124

124:                                              ; preds = %123
  %125 = load i64, ptr @defrag_later_cursor, align 8, !tbaa !39
  %126 = icmp ne i64 %125, 0
  br i1 %126, label %73, label %127, !llvm.loop !193

127:                                              ; preds = %124
  %128 = load i64, ptr %11, align 8, !tbaa !113
  %129 = load i64, ptr getelementptr inbounds nuw (%struct.redisServer, ptr @server, i32 0, i32 106), align 8, !tbaa !40
  %130 = icmp ne i64 %128, %129
  br i1 %130, label %131, label %134

131:                                              ; preds = %127
  %132 = load i64, ptr getelementptr inbounds nuw (%struct.redisServer, ptr @server, i32 0, i32 108), align 8, !tbaa !177
  %133 = add nsw i64 %132, 1
  store i64 %133, ptr getelementptr inbounds nuw (%struct.redisServer, ptr @server, i32 0, i32 108), align 8, !tbaa !177
  br label %137

134:                                              ; preds = %127
  %135 = load i64, ptr getelementptr inbounds nuw (%struct.redisServer, ptr @server, i32 0, i32 109), align 8, !tbaa !178
  %136 = add nsw i64 %135, 1
  store i64 %136, ptr getelementptr inbounds nuw (%struct.redisServer, ptr @server, i32 0, i32 109), align 8, !tbaa !178
  br label %137

137:                                              ; preds = %134, %131
  store i32 0, ptr %13, align 4
  br label %138

138:                                              ; preds = %137, %121
  call void @llvm.lifetime.end.p0(i64 8, ptr %14) #10
  %139 = load i32, ptr %13, align 4
  switch i32 %139, label %143 [
    i32 0, label %140
  ]

140:                                              ; preds = %138
  br label %141

141:                                              ; preds = %140
  br i1 true, label %18, label %142

142:                                              ; preds = %141
  store i32 0, ptr %13, align 4
  br label %143

143:                                              ; preds = %142, %138, %62
  call void @llvm.lifetime.end.p0(i64 8, ptr %11) #10
  call void @llvm.lifetime.end.p0(i64 8, ptr %10) #10
  call void @llvm.lifetime.end.p0(i64 8, ptr %9) #10
  call void @llvm.lifetime.end.p0(i64 4, ptr %8) #10
  %144 = load i32, ptr %13, align 4
  switch i32 %144, label %147 [
    i32 0, label %145
    i32 1, label %145
  ]

145:                                              ; preds = %143, %143
  %146 = load i32, ptr %4, align 4
  ret i32 %146

147:                                              ; preds = %143
  unreachable
}