; Function Attrs: nounwind uwtable
define dso_local range(i32 0, 2) i32 @defragLaterStep(ptr noundef readonly captures(none) %0, i32 noundef %1, i64 noundef %2) local_unnamed_addr #0 {
  %4 = load i64, ptr getelementptr inbounds nuw (i8, ptr @server, i64 2584), align 8, !tbaa !38
  %5 = load i64, ptr getelementptr inbounds nuw (i8, ptr @server, i64 2616), align 8, !tbaa !95
  %6 = getelementptr inbounds nuw i8, ptr %0, i64 80
  %7 = getelementptr inbounds nuw i8, ptr %0, i64 56
  %.pre = load i64, ptr @defrag_later_cursor, align 8, !tbaa !94
  %8 = icmp eq i64 %.pre, 0
  br label %9

9:                                                ; preds = %.backedge, %3
  %.not = phi i1 [ %8, %3 ], [ true, %.backedge ]
  %.038 = phi i64 [ %4, %3 ], [ %.341.ph, %.backedge ]
  %.034 = phi i64 [ %5, %3 ], [ %.337.ph, %.backedge ]
  %.029 = phi i32 [ 0, %3 ], [ %.433.ph, %.backedge ]
  %.pre72 = load ptr, ptr @defrag_later_current_key, align 8, !tbaa !60
  br i1 %.not, label %10, label %24

10:                                               ; preds = %9
  %11 = load ptr, ptr %6, align 8, !tbaa !90
  %12 = load ptr, ptr %11, align 8, !tbaa !78
  %.not46 = icmp eq ptr %.pre72, null
  br i1 %.not46, label %19, label %13

13:                                               ; preds = %10
  %14 = getelementptr inbounds nuw i8, ptr %12, i64 16
  %15 = load ptr, ptr %14, align 8, !tbaa !81
  %16 = icmp eq ptr %.pre72, %15
  br i1 %16, label %18, label %17, !prof !58

17:                                               ; preds = %13
  tail call void @_serverAssert(ptr noundef nonnull @.str.26, ptr noundef nonnull @.str, i32 noundef 975) #10
  tail call void @abort() #11
  unreachable

18:                                               ; preds = %13
  tail call void @listDelNode(ptr noundef nonnull %11, ptr noundef nonnull %12) #10
  store i64 0, ptr @defrag_later_cursor, align 8, !tbaa !94
  store ptr null, ptr @defrag_later_current_key, align 8, !tbaa !60
  %.pre70 = load ptr, ptr %6, align 8, !tbaa !90
  %.pre71 = load ptr, ptr %.pre70, align 8, !tbaa !78
  br label %19

19:                                               ; preds = %18, %10
  %20 = phi ptr [ %.pre71, %18 ], [ %12, %10 ]
  %.not47.not = icmp eq ptr %20, null
  br i1 %.not47.not, label %.critedge, label %21

21:                                               ; preds = %19
  %22 = getelementptr inbounds nuw i8, ptr %20, i64 16
  %23 = load ptr, ptr %22, align 8, !tbaa !81
  store ptr %23, ptr @defrag_later_current_key, align 8, !tbaa !60
  store i64 0, ptr @defrag_later_cursor, align 8, !tbaa !94
  br label %24

24:                                               ; preds = %21, %9
  %25 = phi ptr [ %23, %21 ], [ %.pre72, %9 ]
  %26 = load ptr, ptr %0, align 8, !tbaa !136
  %27 = tail call ptr @kvstoreDictFind(ptr noundef %26, i32 noundef %1, ptr noundef %25) #10
  %28 = load i64, ptr getelementptr inbounds nuw (i8, ptr @server, i64 2584), align 8, !tbaa !38
  br label %29

29:                                               ; preds = %57, %24
  %.139 = phi i64 [ %.038, %24 ], [ %.341.ph, %57 ]
  %.135 = phi i64 [ %.034, %24 ], [ %.337.ph, %57 ]
  %.130 = phi i32 [ %.029, %24 ], [ %.433.ph, %57 ]
  %30 = load i32, ptr %7, align 8, !tbaa !132
  %31 = tail call i32 @defragLaterItem(ptr noundef %27, ptr noundef nonnull @defrag_later_cursor, i64 noundef %2, i32 noundef %30)
  %.not48 = icmp eq i32 %31, 0
  br i1 %.not48, label %32, label %46

32:                                               ; preds = %29
  %33 = add i32 %.130, 1
  %34 = icmp ugt i32 %33, 16
  br i1 %34, label %43, label %35

35:                                               ; preds = %32
  %36 = load i64, ptr getelementptr inbounds nuw (i8, ptr @server, i64 2584), align 8, !tbaa !38
  %37 = sub i64 %36, %.139
  %38 = icmp ugt i64 %37, 512
  br i1 %38, label %43, label %39

39:                                               ; preds = %35
  %40 = load i64, ptr getelementptr inbounds nuw (i8, ptr @server, i64 2616), align 8, !tbaa !95
  %41 = sub i64 %40, %.135
  %42 = icmp ugt i64 %41, 64
  br i1 %42, label %43, label %57

43:                                               ; preds = %39, %35, %32
  %44 = tail call i64 @ustime() #10
  %45 = icmp sgt i64 %44, %2
  br i1 %45, label %46, label %54

46:                                               ; preds = %29, %43
  %47 = load i64, ptr getelementptr inbounds nuw (i8, ptr @server, i64 2584), align 8, !tbaa !38
  %.not50 = icmp eq i64 %28, %47
  br i1 %.not50, label %51, label %48

48:                                               ; preds = %46
  %49 = load i64, ptr getelementptr inbounds nuw (i8, ptr @server, i64 2600), align 8, !tbaa !142
  %50 = add nsw i64 %49, 1
  store i64 %50, ptr getelementptr inbounds nuw (i8, ptr @server, i64 2600), align 8, !tbaa !142
  br label %.critedge

51:                                               ; preds = %46
  %52 = load i64, ptr getelementptr inbounds nuw (i8, ptr @server, i64 2608), align 8, !tbaa !143
  %53 = add nsw i64 %52, 1
  store i64 %53, ptr getelementptr inbounds nuw (i8, ptr @server, i64 2608), align 8, !tbaa !143
  br label %.critedge

54:                                               ; preds = %43
  %55 = load i64, ptr getelementptr inbounds nuw (i8, ptr @server, i64 2584), align 8, !tbaa !38
  %56 = load i64, ptr getelementptr inbounds nuw (i8, ptr @server, i64 2616), align 8, !tbaa !95
  br label %57

57:                                               ; preds = %54, %39
  %58 = phi i64 [ %36, %39 ], [ %55, %54 ]
  %.341.ph = phi i64 [ %.139, %39 ], [ %55, %54 ]
  %.337.ph = phi i64 [ %.135, %39 ], [ %56, %54 ]
  %.433.ph = phi i32 [ %33, %39 ], [ 0, %54 ]
  %59 = load i64, ptr @defrag_later_cursor, align 8, !tbaa !94
  %.not51 = icmp eq i64 %59, 0
  br i1 %.not51, label %60, label %29, !llvm.loop !152

60:                                               ; preds = %57
  %.not52 = icmp eq i64 %28, %58
  br i1 %.not52, label %64, label %61

61:                                               ; preds = %60
  %62 = load i64, ptr getelementptr inbounds nuw (i8, ptr @server, i64 2600), align 8, !tbaa !142
  %63 = add nsw i64 %62, 1
  store i64 %63, ptr getelementptr inbounds nuw (i8, ptr @server, i64 2600), align 8, !tbaa !142
  br label %.backedge

.backedge:                                        ; preds = %61, %64
  br label %9

64:                                               ; preds = %60
  %65 = load i64, ptr getelementptr inbounds nuw (i8, ptr @server, i64 2608), align 8, !tbaa !143
  %66 = add nsw i64 %65, 1
  store i64 %66, ptr getelementptr inbounds nuw (i8, ptr @server, i64 2608), align 8, !tbaa !143
  br label %.backedge

.critedge:                                        ; preds = %19, %51, %48
  %.3 = phi i32 [ 1, %51 ], [ 1, %48 ], [ 0, %19 ]
  ret i32 %.3
}